; ModuleID = '29/1932.c'
source_filename = "29/1932.c"
target datalayout = "e-m:e-p270:32:32-p271:32:32-p272:64:64-i64:64-f80:128-n8:16:32:64-S128"
target triple = "x86_64-pc-linux-gnu"

@.str = private unnamed_addr constant [3 x i8] c"%d\00", align 1
@.str.1 = private unnamed_addr constant [7 x i8] c"2.000\0A\00", align 1
@.str.2 = private unnamed_addr constant [6 x i8] c"%.3f\0A\00", align 1

; Function Attrs: noinline nounwind uwtable
define dso_local i32 @main() #0 {
  %1 = alloca i32, align 4
  %2 = alloca [10000 x float], align 16
  %3 = alloca float, align 4
  %4 = alloca [10000 x float], align 16
  %5 = alloca [10000 x float], align 16
  %6 = alloca i32, align 4
  %7 = alloca [10000 x i32], align 16
  %8 = alloca i32, align 4
  %9 = alloca i32, align 4
  store i32 0, i32* %1, align 4
  %10 = call i32 (i8*, ...) @__isoc99_scanf(i8* getelementptr inbounds ([3 x i8], [3 x i8]* @.str, i64 0, i64 0), i32* %6)
  store i32 0, i32* %8, align 4
  br label %11

11:                                               ; preds = %20, %0
  %12 = load i32, i32* %8, align 4
  %13 = load i32, i32* %6, align 4
  %14 = icmp slt i32 %12, %13
  br i1 %14, label %15, label %23

15:                                               ; preds = %11
  %16 = load i32, i32* %8, align 4
  %17 = sext i32 %16 to i64
  %18 = getelementptr inbounds [10000 x i32], [10000 x i32]* %7, i64 0, i64 %17
  %19 = call i32 (i8*, ...) @__isoc99_scanf(i8* getelementptr inbounds ([3 x i8], [3 x i8]* @.str, i64 0, i64 0), i32* %18)
  br label %20

20:                                               ; preds = %15
  %21 = load i32, i32* %8, align 4
  %22 = add nsw i32 %21, 1
  store i32 %22, i32* %8, align 4
  br label %11

23:                                               ; preds = %11
  store i32 0, i32* %8, align 4
  br label %24

24:                                               ; preds = %100, %23
  %25 = load i32, i32* %8, align 4
  %26 = load i32, i32* %6, align 4
  %27 = icmp slt i32 %25, %26
  br i1 %27, label %28, label %103

28:                                               ; preds = %24
  %29 = load i32, i32* %8, align 4
  %30 = sext i32 %29 to i64
  %31 = getelementptr inbounds [10000 x i32], [10000 x i32]* %7, i64 0, i64 %30
  %32 = load i32, i32* %31, align 4
  %33 = icmp eq i32 %32, 1
  br i1 %33, label %34, label %36

34:                                               ; preds = %28
  %35 = call i32 (i8*, ...) @printf(i8* getelementptr inbounds ([7 x i8], [7 x i8]* @.str.1, i64 0, i64 0))
  br label %99

36:                                               ; preds = %28
  store i32 1, i32* %9, align 4
  br label %37

37:                                               ; preds = %92, %36
  %38 = load i32, i32* %9, align 4
  %39 = load i32, i32* %8, align 4
  %40 = sext i32 %39 to i64
  %41 = getelementptr inbounds [10000 x i32], [10000 x i32]* %7, i64 0, i64 %40
  %42 = load i32, i32* %41, align 4
  %43 = icmp slt i32 %38, %42
  br i1 %43, label %44, label %95

44:                                               ; preds = %37
  %45 = getelementptr inbounds [10000 x float], [10000 x float]* %4, i64 0, i64 0
  store float 2.000000e+00, float* %45, align 16
  %46 = getelementptr inbounds [10000 x float], [10000 x float]* %5, i64 0, i64 0
  store float 1.000000e+00, float* %46, align 16
  %47 = getelementptr inbounds [10000 x float], [10000 x float]* %2, i64 0, i64 0
  store float 2.000000e+00, float* %47, align 16
  %48 = load i32, i32* %9, align 4
  %49 = sub nsw i32 %48, 1
  %50 = sext i32 %49 to i64
  %51 = getelementptr inbounds [10000 x float], [10000 x float]* %4, i64 0, i64 %50
  %52 = load float, float* %51, align 4
  %53 = load i32, i32* %9, align 4
  %54 = sub nsw i32 %53, 1
  %55 = sext i32 %54 to i64
  %56 = getelementptr inbounds [10000 x float], [10000 x float]* %5, i64 0, i64 %55
  %57 = load float, float* %56, align 4
  %58 = fadd float %52, %57
  %59 = load i32, i32* %9, align 4
  %60 = sext i32 %59 to i64
  %61 = getelementptr inbounds [10000 x float], [10000 x float]* %4, i64 0, i64 %60
  store float %58, float* %61, align 4
  %62 = load i32, i32* %9, align 4
  %63 = sub nsw i32 %62, 1
  %64 = sext i32 %63 to i64
  %65 = getelementptr inbounds [10000 x float], [10000 x float]* %4, i64 0, i64 %64
  %66 = load float, float* %65, align 4
  %67 = load i32, i32* %9, align 4
  %68 = sext i32 %67 to i64
  %69 = getelementptr inbounds [10000 x float], [10000 x float]* %5, i64 0, i64 %68
  store float %66, float* %69, align 4
  %70 = load i32, i32* %9, align 4
  %71 = sub nsw i32 %70, 1
  %72 = sext i32 %71 to i64
  %73 = getelementptr inbounds [10000 x float], [10000 x float]* %2, i64 0, i64 %72
  %74 = load float, float* %73, align 4
  %75 = load i32, i32* %9, align 4
  %76 = sext i32 %75 to i64
  %77 = getelementptr inbounds [10000 x float], [10000 x float]* %4, i64 0, i64 %76
  %78 = load float, float* %77, align 4
  %79 = load i32, i32* %9, align 4
  %80 = sext i32 %79 to i64
  %81 = getelementptr inbounds [10000 x float], [10000 x float]* %5, i64 0, i64 %80
  %82 = load float, float* %81, align 4
  %83 = fdiv float %78, %82
  %84 = fadd float %74, %83
  %85 = load i32, i32* %9, align 4
  %86 = sext i32 %85 to i64
  %87 = getelementptr inbounds [10000 x float], [10000 x float]* %2, i64 0, i64 %86
  store float %84, float* %87, align 4
  %88 = load i32, i32* %9, align 4
  %89 = sext i32 %88 to i64
  %90 = getelementptr inbounds [10000 x float], [10000 x float]* %2, i64 0, i64 %89
  %91 = load float, float* %90, align 4
  store float %91, float* %3, align 4
  br label %92

92:                                               ; preds = %44
  %93 = load i32, i32* %9, align 4
  %94 = add nsw i32 %93, 1
  store i32 %94, i32* %9, align 4
  br label %37

95:                                               ; preds = %37
  %96 = load float, float* %3, align 4
  %97 = fpext float %96 to double
  %98 = call i32 (i8*, ...) @printf(i8* getelementptr inbounds ([6 x i8], [6 x i8]* @.str.2, i64 0, i64 0), double %97)
  br label %99

99:                                               ; preds = %95, %34
  br label %100

100:                                              ; preds = %99
  %101 = load i32, i32* %8, align 4
  %102 = add nsw i32 %101, 1
  store i32 %102, i32* %8, align 4
  br label %24

103:                                              ; preds = %24
  ret i32 0
}

declare dso_local i32 @__isoc99_scanf(i8*, ...) #1

declare dso_local i32 @printf(i8*, ...) #1


!llvm.module.flags = !{!0}
!llvm.ident = !{!1}

!0 = !{i32 1, !"wchar_size", i32 4}
!1 = !{!"clang version 10.0.0-4ubuntu1 "}
